; Function Attrs: mustprogress uwtable
define internal fastcc void @_Z7deallocIN12_GLOBAL__N_110smt_solver5cuberEEvPT_(ptr noundef %0) unnamed_addr #3 personality ptr @__gxx_personality_v0 {
  %2 = icmp eq ptr %0, null
  br i1 %2, label %30, label %3

3:                                                ; preds = %1
  %4 = getelementptr inbounds nuw i8, ptr %0, i64 16
  %5 = getelementptr inbounds nuw i8, ptr %0, i64 24
  %6 = load ptr, ptr %5, align 8, !tbaa !247
  %7 = icmp eq ptr %6, null
  br i1 %7, label %_ZN12_GLOBAL__N_110smt_solver5cuberD2Ev.exit, label %_ZNK6vectorIP4exprLb0EjE4sizeEv.exit.i.i

_ZNK6vectorIP4exprLb0EjE4sizeEv.exit.i.i:         ; preds = %3
  %8 = getelementptr inbounds i8, ptr %6, i64 -4
  %9 = load i32, ptr %8, align 4, !tbaa !248
  %10 = zext i32 %9 to i64
  %11 = getelementptr inbounds nuw ptr, ptr %6, i64 %10
  %.not.i.i = icmp eq i32 %9, 0
  br i1 %.not.i.i, label %_ZN15ref_vector_coreI4expr19ref_manager_wrapperIS0_11ast_managerEE13dec_range_refEPKPS0_S7_.exit.thread4.i.i, label %.lr.ph.i.i.i

.lr.ph.i.i.i:                                     ; preds = %_ZNK6vectorIP4exprLb0EjE4sizeEv.exit.i.i, %_ZN15ref_vector_coreI4expr19ref_manager_wrapperIS0_11ast_managerEE7dec_refEPS0_.exit.i.i.i
  %.06.i.i.i = phi ptr [ %20, %_ZN15ref_vector_coreI4expr19ref_manager_wrapperIS0_11ast_managerEE7dec_refEPS0_.exit.i.i.i ], [ %6, %_ZNK6vectorIP4exprLb0EjE4sizeEv.exit.i.i ]
  %12 = load ptr, ptr %.06.i.i.i, align 8, !tbaa !249
  %13 = load ptr, ptr %4, align 8, !tbaa !251
  %.not.i.i.i.i.i.i = icmp eq ptr %12, null
  br i1 %.not.i.i.i.i.i.i, label %_ZN15ref_vector_coreI4expr19ref_manager_wrapperIS0_11ast_managerEE7dec_refEPS0_.exit.i.i.i, label %14

14:                                               ; preds = %.lr.ph.i.i.i
  %15 = getelementptr inbounds nuw i8, ptr %12, i64 8
  %16 = load i32, ptr %15, align 4, !tbaa !252
  %17 = add i32 %16, -1
  store i32 %17, ptr %15, align 4, !tbaa !252
  %18 = icmp eq i32 %17, 0
  br i1 %18, label %19, label %_ZN15ref_vector_coreI4expr19ref_manager_wrapperIS0_11ast_managerEE7dec_refEPS0_.exit.i.i.i

19:                                               ; preds = %14
  invoke void @_ZN11ast_manager11delete_nodeEP3ast(ptr noundef nonnull align 8 dereferenceable(976) %13, ptr noundef nonnull %12)
          to label %_ZN15ref_vector_coreI4expr19ref_manager_wrapperIS0_11ast_managerEE7dec_refEPS0_.exit.i.i.i unwind label %27

_ZN15ref_vector_coreI4expr19ref_manager_wrapperIS0_11ast_managerEE7dec_refEPS0_.exit.i.i.i: ; preds = %19, %14, %.lr.ph.i.i.i
  %20 = getelementptr inbounds nuw i8, ptr %.06.i.i.i, i64 8
  %21 = icmp ult ptr %20, %11
  br i1 %21, label %.lr.ph.i.i.i, label %_ZN15ref_vector_coreI4expr19ref_manager_wrapperIS0_11ast_managerEE13dec_range_refEPKPS0_S7_.exit.i.i, !llvm.loop !254

_ZN15ref_vector_coreI4expr19ref_manager_wrapperIS0_11ast_managerEE13dec_range_refEPKPS0_S7_.exit.i.i: ; preds = %_ZN15ref_vector_coreI4expr19ref_manager_wrapperIS0_11ast_managerEE7dec_refEPS0_.exit.i.i.i
  %.pre.i.i = load ptr, ptr %5, align 8, !tbaa !247
  %.not.i.i.i.i = icmp eq ptr %.pre.i.i, null
  br i1 %.not.i.i.i.i, label %_ZN12_GLOBAL__N_110smt_solver5cuberD2Ev.exit, label %_ZN15ref_vector_coreI4expr19ref_manager_wrapperIS0_11ast_managerEE13dec_range_refEPKPS0_S7_.exit.thread4.i.i

_ZN15ref_vector_coreI4expr19ref_manager_wrapperIS0_11ast_managerEE13dec_range_refEPKPS0_S7_.exit.thread4.i.i: ; preds = %_ZN15ref_vector_coreI4expr19ref_manager_wrapperIS0_11ast_managerEE13dec_range_refEPKPS0_S7_.exit.i.i, %_ZNK6vectorIP4exprLb0EjE4sizeEv.exit.i.i
  %22 = phi ptr [ %.pre.i.i, %_ZN15ref_vector_coreI4expr19ref_manager_wrapperIS0_11ast_managerEE13dec_range_refEPKPS0_S7_.exit.i.i ], [ %6, %_ZNK6vectorIP4exprLb0EjE4sizeEv.exit.i.i ]
  %23 = getelementptr inbounds i8, ptr %22, i64 -8
  invoke void @_ZN6memory10deallocateEPv(ptr noundef nonnull %23)
          to label %_ZN12_GLOBAL__N_110smt_solver5cuberD2Ev.exit unwind label %24

24:                                               ; preds = %_ZN15ref_vector_coreI4expr19ref_manager_wrapperIS0_11ast_managerEE13dec_range_refEPKPS0_S7_.exit.thread4.i.i
  %25 = landingpad { ptr, i32 }
          catch ptr null
  %26 = extractvalue { ptr, i32 } %25, 0
  tail call void @__clang_call_terminate(ptr %26) #25
  unreachable

27:                                               ; preds = %19
  %28 = landingpad { ptr, i32 }
          catch ptr null
  %29 = extractvalue { ptr, i32 } %28, 0
  tail call void @__clang_call_terminate(ptr %29) #25
  unreachable

_ZN12_GLOBAL__N_110smt_solver5cuberD2Ev.exit:     ; preds = %3, %_ZN15ref_vector_coreI4expr19ref_manager_wrapperIS0_11ast_managerEE13dec_range_refEPKPS0_S7_.exit.i.i, %_ZN15ref_vector_coreI4expr19ref_manager_wrapperIS0_11ast_managerEE13dec_range_refEPKPS0_S7_.exit.thread4.i.i
  tail call void @_ZN6memory10deallocateEPv(ptr noundef nonnull %0)
  br label %30

30:                                               ; preds = %1, %_ZN12_GLOBAL__N_110smt_solver5cuberD2Ev.exit
  ret void
}